; Function Attrs: nounwind uwtable
define internal fastcc noundef zeroext i1 @StatisticsObjIsVisibleExt(i32 noundef %0, ptr noundef writeonly captures(address_is_null) %1) unnamed_addr #0 {
  %3 = zext i32 %0 to i64
  %4 = tail call ptr @SearchSysCache1(i32 noundef 64, i64 noundef %3) #19
  %.not = icmp eq ptr %4, null
  br i1 %.not, label %5, label %10

5:                                                ; preds = %2
  %.not30 = icmp eq ptr %1, null
  br i1 %.not30, label %7, label %6

6:                                                ; preds = %5
  store i8 1, ptr %1, align 1
  br label %40

7:                                                ; preds = %5
  %8 = tail call zeroext i1 @errstart_cold(i32 noundef 21, ptr noundef null) #21
  tail call void @llvm.assume(i1 %8)
  %9 = tail call i32 (ptr, ...) @errmsg_internal(ptr noundef nonnull @.str.38, i32 noundef %0) #19
  tail call void @errfinish(ptr noundef nonnull @.str.1, i32 noundef 2659, ptr noundef nonnull @__func__.StatisticsObjIsVisibleExt) #19
  unreachable

10:                                               ; preds = %2
  %11 = getelementptr i8, ptr %4, i64 16
  %.val = load ptr, ptr %11, align 8
  %12 = getelementptr inbounds nuw i8, ptr %.val, i64 22
  %13 = load i8, ptr %12, align 2
  %14 = zext i8 %13 to i64
  %15 = getelementptr inbounds nuw i8, ptr %.val, i64 %14
  tail call fastcc void @recomputeNamespacePath()
  %16 = getelementptr inbounds nuw i8, ptr %15, i64 72
  %17 = load i32, ptr %16, align 4
  %.not31 = icmp eq i32 %17, 11
  br i1 %.not31, label %21, label %18

18:                                               ; preds = %10
  %19 = load ptr, ptr @activeSearchPath, align 8
  %20 = tail call zeroext i1 @list_member_oid(ptr noundef %19, i32 noundef %17) #19
  br i1 %20, label %21, label %.thread

21:                                               ; preds = %18, %10
  %22 = load ptr, ptr @activeSearchPath, align 8
  %23 = getelementptr inbounds nuw i8, ptr %22, i64 4
  %24 = getelementptr inbounds nuw i8, ptr %22, i64 16
  %.not32 = icmp eq ptr %22, null
  br i1 %.not32, label %.thread, label %.lr.ph

.lr.ph:                                           ; preds = %21
  %25 = getelementptr inbounds nuw i8, ptr %15, i64 8
  %26 = ptrtoint ptr %25 to i64
  %27 = load i32, ptr %23, align 4
  %28 = icmp sgt i32 %27, 0
  br i1 %28, label %.lr.ph50, label %.thread

29:                                               ; preds = %37
  %indvars.iv.next = add nuw nsw i64 %indvars.iv, 1
  %30 = load i32, ptr %23, align 4
  %31 = sext i32 %30 to i64
  %32 = icmp slt i64 %indvars.iv.next, %31
  br i1 %32, label %.lr.ph50, label %.thread

.lr.ph50:                                         ; preds = %.lr.ph, %29
  %indvars.iv = phi i64 [ %indvars.iv.next, %29 ], [ 0, %.lr.ph ]
  %33 = load ptr, ptr %24, align 8
  %34 = getelementptr inbounds nuw %union.ListCell, ptr %33, i64 %indvars.iv
  %35 = load i32, ptr %34, align 8
  %36 = icmp eq i32 %35, %17
  br i1 %36, label %.thread, label %37

37:                                               ; preds = %.lr.ph50
  %38 = zext i32 %35 to i64
  %39 = tail call zeroext i1 @SearchSysCacheExists(i32 noundef 63, i64 noundef %26, i64 noundef %38, i64 noundef 0, i64 noundef 0) #19
  br i1 %39, label %.thread, label %29

.thread:                                          ; preds = %.lr.ph50, %29, %37, %21, %.lr.ph, %18
  %.022 = phi i1 [ false, %18 ], [ false, %21 ], [ false, %.lr.ph ], [ %36, %37 ], [ %36, %29 ], [ %36, %.lr.ph50 ]
  tail call void @ReleaseSysCache(ptr noundef nonnull %4) #19
  br label %40

40:                                               ; preds = %.thread, %6
  %.0 = phi i1 [ %.022, %.thread ], [ false, %6 ]
  ret i1 %.0
}